target datalayout = "e-m:e-p270:32:32-p271:32:32-p272:64:64-i64:64-i128:128-f80:128-n8:16:32:64-S128"
target triple = "x86_64-pc-linux-gnu"

%"class.cvc5::internal::NodeTemplate" = type { ptr }
%"class.cvc5::internal::theory::arith::linear::RaiseConflict" = type { ptr }
%"class.cvc5::internal::theory::arith::linear::SimplexDecisionProcedure" = type { %"class.cvc5::internal::EnvObj", i32, %"class.cvc5::internal::DenseSet", i32, ptr, ptr, ptr, ptr, i32, %"class.cvc5::internal::theory::arith::linear::RaiseConflict", ptr, %"class.cvc5::internal::theory::arith::linear::TempVarMalloc", i32, %"class.cvc5::internal::Rational", %"class.cvc5::internal::Rational", %"class.cvc5::internal::Rational", i64 }
%"class.cvc5::internal::EnvObj" = type { ptr, ptr }
%"class.cvc5::internal::DenseSet" = type { %"class.cvc5::internal::DenseMap" }
%"class.cvc5::internal::DenseMap" = type { %"class.std::vector", %"class.std::vector", %"class.std::vector.0" }
%"class.std::vector" = type { %"struct.std::_Vector_base" }
%"struct.std::_Vector_base" = type { %"struct.std::_Vector_base<unsigned int, std::allocator<unsigned int>>::_Vector_impl" }
%"struct.std::_Vector_base<unsigned int, std::allocator<unsigned int>>::_Vector_impl" = type { %"struct.std::_Vector_base<unsigned int, std::allocator<unsigned int>>::_Vector_impl_data" }
%"struct.std::_Vector_base<unsigned int, std::allocator<unsigned int>>::_Vector_impl_data" = type { ptr, ptr, ptr }
%"class.std::vector.0" = type { %"struct.std::_Bvector_base" }
%"struct.std::_Bvector_base" = type { %"struct.std::_Bvector_base<std::allocator<bool>>::_Bvector_impl" }
%"struct.std::_Bvector_base<std::allocator<bool>>::_Bvector_impl" = type { %"struct.std::_Bvector_base<std::allocator<bool>>::_Bvector_impl_data" }
%"struct.std::_Bvector_base<std::allocator<bool>>::_Bvector_impl_data" = type { %"struct.std::_Bit_iterator", %"struct.std::_Bit_iterator", ptr }
%"struct.std::_Bit_iterator" = type { %"struct.std::_Bit_iterator_base.base", [4 x i8] }
%"struct.std::_Bit_iterator_base.base" = type <{ ptr, i32 }>
%"class.cvc5::internal::theory::arith::linear::TempVarMalloc" = type { %"class.cvc5::internal::theory::arith::linear::ArithVarMalloc", ptr }
%"class.cvc5::internal::theory::arith::linear::ArithVarMalloc" = type { ptr }
%"class.cvc5::internal::Rational" = type { %class.__gmp_expr }
%class.__gmp_expr = type { [1 x %struct.__mpq_struct] }
%struct.__mpq_struct = type { %struct.__mpz_struct, %struct.__mpz_struct }
%struct.__mpz_struct = type { i32, i32, ptr }
%"class.cvc5::internal::DeltaRational" = type { %"class.cvc5::internal::Rational", %"class.cvc5::internal::Rational" }
%"class.cvc5::internal::theory::arith::linear::ArithVariables" = type { %"class.cvc5::internal::DenseMap.285", %"class.cvc5::internal::DenseMap.291", i32, %"class.std::vector", %"class.std::vector", %"class.std::unordered_map", %"class.cvc5::internal::DenseMap.302", i8, %"class.cvc5::context::CDList", %"class.cvc5::context::CDList.313", i8, %"class.cvc5::internal::Rational", %"class.cvc5::internal::theory::arith::linear::DeltaComputeCallback" }
%"class.cvc5::internal::DenseMap.285" = type { %"class.std::vector", %"class.std::vector", %"class.std::vector.286" }
%"class.std::vector.286" = type { %"struct.std::_Vector_base.287" }
%"struct.std::_Vector_base.287" = type { %"struct.std::_Vector_base<cvc5::internal::theory::arith::linear::ArithVariables::VarInfo, std::allocator<cvc5::internal::theory::arith::linear::ArithVariables::VarInfo>>::_Vector_impl" }
%"struct.std::_Vector_base<cvc5::internal::theory::arith::linear::ArithVariables::VarInfo, std::allocator<cvc5::internal::theory::arith::linear::ArithVariables::VarInfo>>::_Vector_impl" = type { %"struct.std::_Vector_base<cvc5::internal::theory::arith::linear::ArithVariables::VarInfo, std::allocator<cvc5::internal::theory::arith::linear::ArithVariables::VarInfo>>::_Vector_impl_data" }
%"struct.std::_Vector_base<cvc5::internal::theory::arith::linear::ArithVariables::VarInfo, std::allocator<cvc5::internal::theory::arith::linear::ArithVariables::VarInfo>>::_Vector_impl_data" = type { ptr, ptr, ptr }
%"class.cvc5::internal::DenseMap.291" = type { %"class.std::vector", %"class.std::vector", %"class.std::vector.292" }
%"class.std::vector.292" = type { %"struct.std::_Vector_base.293" }
%"struct.std::_Vector_base.293" = type { %"struct.std::_Vector_base<cvc5::internal::DeltaRational, std::allocator<cvc5::internal::DeltaRational>>::_Vector_impl" }
%"struct.std::_Vector_base<cvc5::internal::DeltaRational, std::allocator<cvc5::internal::DeltaRational>>::_Vector_impl" = type { %"struct.std::_Vector_base<cvc5::internal::DeltaRational, std::allocator<cvc5::internal::DeltaRational>>::_Vector_impl_data" }
%"struct.std::_Vector_base<cvc5::internal::DeltaRational, std::allocator<cvc5::internal::DeltaRational>>::_Vector_impl_data" = type { ptr, ptr, ptr }
%"class.std::unordered_map" = type { %"class.std::_Hashtable" }
%"class.std::_Hashtable" = type { ptr, i64, %"struct.std::__detail::_Hash_node_base", i64, %"struct.std::__detail::_Prime_rehash_policy", ptr }
%"struct.std::__detail::_Hash_node_base" = type { ptr }
%"struct.std::__detail::_Prime_rehash_policy" = type { float, i64 }
%"class.cvc5::internal::DenseMap.302" = type { %"class.std::vector", %"class.std::vector", %"class.std::vector.303" }
%"class.std::vector.303" = type { %"struct.std::_Vector_base.304" }
%"struct.std::_Vector_base.304" = type { %"struct.std::_Vector_base<cvc5::internal::theory::arith::linear::BoundsInfo, std::allocator<cvc5::internal::theory::arith::linear::BoundsInfo>>::_Vector_impl" }
%"struct.std::_Vector_base<cvc5::internal::theory::arith::linear::BoundsInfo, std::allocator<cvc5::internal::theory::arith::linear::BoundsInfo>>::_Vector_impl" = type { %"struct.std::_Vector_base<cvc5::internal::theory::arith::linear::BoundsInfo, std::allocator<cvc5::internal::theory::arith::linear::BoundsInfo>>::_Vector_impl_data" }
%"struct.std::_Vector_base<cvc5::internal::theory::arith::linear::BoundsInfo, std::allocator<cvc5::internal::theory::arith::linear::BoundsInfo>>::_Vector_impl_data" = type { ptr, ptr, ptr }
%"class.cvc5::context::CDList" = type { %"class.cvc5::context::ContextObj", %"class.std::vector.308", i64, i8, %"class.cvc5::internal::theory::arith::linear::ArithVariables::LowerBoundCleanUp" }
%"class.cvc5::context::ContextObj" = type { ptr, ptr, ptr, ptr, ptr }
%"class.std::vector.308" = type { %"struct.std::_Vector_base.309" }
%"struct.std::_Vector_base.309" = type { %"struct.std::_Vector_base<std::pair<unsigned int, cvc5::internal::theory::arith::linear::Constraint *>, std::allocator<std::pair<unsigned int, cvc5::internal::theory::arith::linear::Constraint *>>>::_Vector_impl" }
%"struct.std::_Vector_base<std::pair<unsigned int, cvc5::internal::theory::arith::linear::Constraint *>, std::allocator<std::pair<unsigned int, cvc5::internal::theory::arith::linear::Constraint *>>>::_Vector_impl" = type { %"struct.std::_Vector_base<std::pair<unsigned int, cvc5::internal::theory::arith::linear::Constraint *>, std::allocator<std::pair<unsigned int, cvc5::internal::theory::arith::linear::Constraint *>>>::_Vector_impl_data" }
%"struct.std::_Vector_base<std::pair<unsigned int, cvc5::internal::theory::arith::linear::Constraint *>, std::allocator<std::pair<unsigned int, cvc5::internal::theory::arith::linear::Constraint *>>>::_Vector_impl_data" = type { ptr, ptr, ptr }
%"class.cvc5::internal::theory::arith::linear::ArithVariables::LowerBoundCleanUp" = type { ptr }
%"class.cvc5::context::CDList.313" = type { %"class.cvc5::context::ContextObj", %"class.std::vector.308", i64, i8, %"class.cvc5::internal::theory::arith::linear::ArithVariables::UpperBoundCleanUp" }
%"class.cvc5::internal::theory::arith::linear::ArithVariables::UpperBoundCleanUp" = type { ptr }
%"class.cvc5::internal::theory::arith::linear::DeltaComputeCallback" = type { %"class.cvc5::internal::theory::arith::linear::RationalCallBack", ptr }
%"class.cvc5::internal::theory::arith::linear::RationalCallBack" = type { ptr }
%"class.cvc5::internal::theory::arith::linear::ArithVariables::VarInfo" = type <{ i32, [4 x i8], %"class.cvc5::internal::DeltaRational", ptr, ptr, i32, i32, i32, i32, %"class.cvc5::internal::NodeTemplate", i8, [7 x i8] }>

; Function Attrs: mustprogress nounwind uwtable
define linkonce_odr hidden noundef nonnull align 8 dereferenceable(113) ptr @_ZNKSt6vectorIN4cvc58internal6theory5arith6linear14ArithVariables7VarInfoESaIS6_EEixEm(ptr noundef nonnull align 8 dereferenceable(24) %0, i64 noundef %1) #7 comdat align 2 {
  %3 = alloca ptr, align 8
  %4 = alloca i64, align 8
  store ptr %0, ptr %3, align 8, !tbaa !520
  store i64 %1, ptr %4, align 8, !tbaa !312
  %5 = load ptr, ptr %3, align 8
  %6 = getelementptr inbounds nuw %"struct.std::_Vector_base.287", ptr %5, i32 0, i32 0
  %7 = getelementptr inbounds nuw %"struct.std::_Vector_base<cvc5::internal::theory::arith::linear::ArithVariables::VarInfo, std::allocator<cvc5::internal::theory::arith::linear::ArithVariables::VarInfo>>::_Vector_impl_data", ptr %6, i32 0, i32 0
  %8 = load ptr, ptr %7, align 8, !tbaa !522
  %9 = load i64, ptr %4, align 8, !tbaa !312
  %10 = getelementptr inbounds nuw %"class.cvc5::internal::theory::arith::linear::ArithVariables::VarInfo", ptr %8, i64 %9
  ret ptr %10
}

; Function Attrs: mustprogress nounwind uwtable
define linkonce_odr hidden noundef nonnull align 8 dereferenceable(113) ptr @_ZNK4cvc58internal8DenseMapINS0_6theory5arith6linear14ArithVariables7VarInfoEEixEj(ptr noundef nonnull align 8 dereferenceable(72) %0, i32 noundef %1) #7 comdat align 2 {
  %3 = alloca ptr, align 8
  %4 = alloca i32, align 4
  store ptr %0, ptr %3, align 8, !tbaa !518
  store i32 %1, ptr %4, align 4, !tbaa !300
  %5 = load ptr, ptr %3, align 8
  %6 = getelementptr inbounds nuw %"class.cvc5::internal::DenseMap.285", ptr %5, i32 0, i32 2
  %7 = load i32, ptr %4, align 4, !tbaa !300
  %8 = zext i32 %7 to i64
  %9 = call noundef nonnull align 8 dereferenceable(113) ptr @_ZNKSt6vectorIN4cvc58internal6theory5arith6linear14ArithVariables7VarInfoESaIS6_EEixEm(ptr noundef nonnull align 8 dereferenceable(24) %6, i64 noundef %8) #3
  ret ptr %9
}

; Function Attrs: inlinehint mustprogress nounwind uwtable
define linkonce_odr hidden noundef i32 @_ZNK4cvc58internal6theory5arith6linear14ArithVariables23cmpAssignmentUpperBoundEj(ptr noundef nonnull align 8 dereferenceable(568) %0, i32 noundef %1) #9 comdat align 2 {
  %3 = alloca ptr, align 8
  %4 = alloca i32, align 4
  store ptr %0, ptr %3, align 8, !tbaa !48
  store i32 %1, ptr %4, align 4, !tbaa !300
  %5 = load ptr, ptr %3, align 8
  %6 = getelementptr inbounds nuw %"class.cvc5::internal::theory::arith::linear::ArithVariables", ptr %5, i32 0, i32 0
  %7 = load i32, ptr %4, align 4, !tbaa !300
  %8 = call noundef nonnull align 8 dereferenceable(113) ptr @_ZNK4cvc58internal8DenseMapINS0_6theory5arith6linear14ArithVariables7VarInfoEEixEj(ptr noundef nonnull align 8 dereferenceable(72) %6, i32 noundef %7)
  %9 = getelementptr inbounds nuw %"class.cvc5::internal::theory::arith::linear::ArithVariables::VarInfo", ptr %8, i32 0, i32 6
  %10 = load i32, ptr %9, align 4, !tbaa !364
  ret i32 %10
}

; Function Attrs: inlinehint mustprogress uwtable
define linkonce_odr hidden noundef i32 @_ZNK4cvc58internal6theory5arith6linear14ArithVariables23cmpAssignmentLowerBoundEj(ptr noundef nonnull align 8 dereferenceable(568) %0, i32 noundef %1) #6 comdat align 2 {
  %3 = alloca ptr, align 8
  %4 = alloca i32, align 4
  store ptr %0, ptr %3, align 8, !tbaa !48
  store i32 %1, ptr %4, align 4, !tbaa !300
  %5 = load ptr, ptr %3, align 8
  %6 = getelementptr inbounds nuw %"class.cvc5::internal::theory::arith::linear::ArithVariables", ptr %5, i32 0, i32 0
  %7 = load i32, ptr %4, align 4, !tbaa !300
  %8 = call noundef nonnull align 8 dereferenceable(113) ptr @_ZNK4cvc58internal8DenseMapINS0_6theory5arith6linear14ArithVariables7VarInfoEEixEj(ptr noundef nonnull align 8 dereferenceable(72) %6, i32 noundef %7)
  %9 = getelementptr inbounds nuw %"class.cvc5::internal::theory::arith::linear::ArithVariables::VarInfo", ptr %8, i32 0, i32 5
  %10 = load i32, ptr %9, align 8, !tbaa !358
  ret i32 %10
}

; Function Attrs: mustprogress uwtable
define hidden noundef zeroext i1 @_ZNK4cvc58internal6theory5arith6linear24SimplexDecisionProcedure21checkBasicForConflictEj(ptr noundef nonnull align 8 dereferenceable(304) %0, i32 noundef %1) #4 align 2 {
  %3 = alloca i1, align 1
  %4 = alloca ptr, align 8
  %5 = alloca i32, align 4
  store ptr %0, ptr %4, align 8, !tbaa !3
  store i32 %1, ptr %5, align 4, !tbaa !300
  %6 = load ptr, ptr %4, align 8
  %7 = getelementptr inbounds nuw %"class.cvc5::internal::theory::arith::linear::SimplexDecisionProcedure", ptr %6, i32 0, i32 5
  %8 = load ptr, ptr %7, align 8, !tbaa !311
  %9 = load i32, ptr %5, align 4, !tbaa !300
  %10 = call noundef i32 @_ZNK4cvc58internal6theory5arith6linear14ArithVariables23cmpAssignmentLowerBoundEj(ptr noundef nonnull align 8 dereferenceable(568) %8, i32 noundef %9)
  %11 = icmp slt i32 %10, 0
  br i1 %11, label %12, label %19

12:                                               ; preds = %2
  %13 = getelementptr inbounds nuw %"class.cvc5::internal::theory::arith::linear::SimplexDecisionProcedure", ptr %6, i32 0, i32 4
  %14 = load ptr, ptr %13, align 8, !tbaa !47
  %15 = load i32, ptr %5, align 4, !tbaa !300
  %16 = call noundef zeroext i1 @_ZNK4cvc58internal6theory5arith6linear20LinearEqualityModule22nonbasicsAtUpperBoundsEj(ptr noundef nonnull align 8 dereferenceable(456) %14, i32 noundef %15)
  br i1 %16, label %17, label %18

17:                                               ; preds = %12
  store i1 true, ptr %3, align 1
  br label %34

18:                                               ; preds = %12
  br label %33

19:                                               ; preds = %2
  %20 = getelementptr inbounds nuw %"class.cvc5::internal::theory::arith::linear::SimplexDecisionProcedure", ptr %6, i32 0, i32 5
  %21 = load ptr, ptr %20, align 8, !tbaa !311
  %22 = load i32, ptr %5, align 4, !tbaa !300
  %23 = call noundef i32 @_ZNK4cvc58internal6theory5arith6linear14ArithVariables23cmpAssignmentUpperBoundEj(ptr noundef nonnull align 8 dereferenceable(568) %21, i32 noundef %22)
  %24 = icmp sgt i32 %23, 0
  br i1 %24, label %25, label %32

25:                                               ; preds = %19
  %26 = getelementptr inbounds nuw %"class.cvc5::internal::theory::arith::linear::SimplexDecisionProcedure", ptr %6, i32 0, i32 4
  %27 = load ptr, ptr %26, align 8, !tbaa !47
  %28 = load i32, ptr %5, align 4, !tbaa !300
  %29 = call noundef zeroext i1 @_ZNK4cvc58internal6theory5arith6linear20LinearEqualityModule22nonbasicsAtLowerBoundsEj(ptr noundef nonnull align 8 dereferenceable(456) %27, i32 noundef %28)
  br i1 %29, label %30, label %31

30:                                               ; preds = %25
  store i1 true, ptr %3, align 1
  br label %34

31:                                               ; preds = %25
  br label %32

32:                                               ; preds = %31, %19
  br label %33

33:                                               ; preds = %32, %18
  store i1 false, ptr %3, align 1
  br label %34

34:                                               ; preds = %33, %30, %17
  %35 = load i1, ptr %3, align 1
  ret i1 %35
}