; Function Attrs: mustprogress uwtable
define hidden noundef zeroext i1 @_ZNK4cvc58internal6theory5arith6linear24SimplexDecisionProcedure21checkBasicForConflictEj(ptr noundef nonnull readonly align 8 captures(none) dereferenceable(304) %0, i32 noundef %1) local_unnamed_addr #3 align 2 {
  %3 = getelementptr inbounds nuw i8, ptr %0, i64 128
  %4 = load ptr, ptr %3, align 8, !tbaa !308
  %5 = getelementptr inbounds nuw i8, ptr %4, i64 48
  %6 = zext i32 %1 to i64
  %7 = load ptr, ptr %5, align 8, !tbaa !309
  %8 = getelementptr inbounds nuw %"class.cvc5::internal::theory::arith::linear::ArithVariables::VarInfo", ptr %7, i64 %6, i32 5
  %9 = load i32, ptr %8, align 8, !tbaa !312
  %10 = icmp slt i32 %9, 0
  br i1 %10, label %11, label %15

11:                                               ; preds = %2
  %12 = getelementptr inbounds nuw i8, ptr %0, i64 120
  %13 = load ptr, ptr %12, align 8, !tbaa !319
  %14 = tail call noundef zeroext i1 @_ZNK4cvc58internal6theory5arith6linear20LinearEqualityModule22nonbasicsAtUpperBoundsEj(ptr noundef nonnull align 8 dereferenceable(456) %13, i32 noundef %1)
  br i1 %14, label %24, label %23

15:                                               ; preds = %2
  %16 = getelementptr inbounds nuw %"class.cvc5::internal::theory::arith::linear::ArithVariables::VarInfo", ptr %7, i64 %6, i32 6
  %17 = load i32, ptr %16, align 4, !tbaa !320
  %18 = icmp sgt i32 %17, 0
  br i1 %18, label %19, label %23

19:                                               ; preds = %15
  %20 = getelementptr inbounds nuw i8, ptr %0, i64 120
  %21 = load ptr, ptr %20, align 8, !tbaa !319
  %22 = tail call noundef zeroext i1 @_ZNK4cvc58internal6theory5arith6linear20LinearEqualityModule22nonbasicsAtLowerBoundsEj(ptr noundef nonnull align 8 dereferenceable(456) %21, i32 noundef %1)
  br i1 %22, label %24, label %23

23:                                               ; preds = %15, %19, %11
  br label %24

24:                                               ; preds = %19, %11, %23
  %.0 = phi i1 [ false, %23 ], [ true, %11 ], [ true, %19 ]
  ret i1 %.0
}